target datalayout = "e-m:e-p270:32:32-p271:32:32-p272:64:64-i64:64-i128:128-f80:128-n8:16:32:64-S128"
target triple = "x86_64-pc-linux-gnu"

%"class.std::vector.0" = type { %"struct.std::_Vector_base.1" }
%"struct.std::_Vector_base.1" = type { %"struct.std::_Vector_base<Function *, std::allocator<Function *>>::_Vector_impl" }
%"struct.std::_Vector_base<Function *, std::allocator<Function *>>::_Vector_impl" = type { %"struct.std::_Vector_base<Function *, std::allocator<Function *>>::_Vector_impl_data" }
%"struct.std::_Vector_base<Function *, std::allocator<Function *>>::_Vector_impl_data" = type { ptr, ptr, ptr }
%"class.std::vector.5" = type { %"struct.std::_Vector_base.6" }
%"struct.std::_Vector_base.6" = type { %"struct.std::_Vector_base<FactMgr *, std::allocator<FactMgr *>>::_Vector_impl" }
%"struct.std::_Vector_base<FactMgr *, std::allocator<FactMgr *>>::_Vector_impl" = type { %"struct.std::_Vector_base<FactMgr *, std::allocator<FactMgr *>>::_Vector_impl_data" }
%"struct.std::_Vector_base<FactMgr *, std::allocator<FactMgr *>>::_Vector_impl_data" = type { ptr, ptr, ptr }

@_ZL8FuncList = internal global %"class.std::vector.0" zeroinitializer, align 8
@_ZL6FMList = internal global %"class.std::vector.5" zeroinitializer, align 8

; Function Attrs: mustprogress nounwind uwtable
define linkonce_odr dso_local noundef nonnull align 8 dereferenceable(8) ptr @_ZNSt6vectorIP7FactMgrSaIS1_EEixEm(ptr noundef nonnull align 8 dereferenceable(24) %0, i64 noundef %1) #4 comdat align 2 {
  %3 = alloca ptr, align 8
  %4 = alloca i64, align 8
  store ptr %0, ptr %3, align 8
  store i64 %1, ptr %4, align 8
  %5 = load ptr, ptr %3, align 8
  %6 = getelementptr inbounds %"struct.std::_Vector_base.6", ptr %5, i32 0, i32 0
  %7 = getelementptr inbounds %"struct.std::_Vector_base<FactMgr *, std::allocator<FactMgr *>>::_Vector_impl_data", ptr %6, i32 0, i32 0
  %8 = load ptr, ptr %7, align 8
  %9 = load i64, ptr %4, align 8
  %10 = getelementptr inbounds ptr, ptr %8, i64 %9
  ret ptr %10
}

; Function Attrs: mustprogress nounwind uwtable
define linkonce_odr dso_local noundef nonnull align 8 dereferenceable(8) ptr @_ZNSt6vectorIP8FunctionSaIS1_EEixEm(ptr noundef nonnull align 8 dereferenceable(24) %0, i64 noundef %1) #4 comdat align 2 {
  %3 = alloca ptr, align 8
  %4 = alloca i64, align 8
  store ptr %0, ptr %3, align 8
  store i64 %1, ptr %4, align 8
  %5 = load ptr, ptr %3, align 8
  %6 = getelementptr inbounds %"struct.std::_Vector_base.1", ptr %5, i32 0, i32 0
  %7 = getelementptr inbounds %"struct.std::_Vector_base<Function *, std::allocator<Function *>>::_Vector_impl_data", ptr %6, i32 0, i32 0
  %8 = load ptr, ptr %7, align 8
  %9 = load i64, ptr %4, align 8
  %10 = getelementptr inbounds ptr, ptr %8, i64 %9
  ret ptr %10
}

; Function Attrs: mustprogress nounwind uwtable
define linkonce_odr dso_local noundef i64 @_ZNKSt6vectorIP8FunctionSaIS1_EE4sizeEv(ptr noundef nonnull align 8 dereferenceable(24) %0) #4 comdat align 2 {
  %2 = alloca ptr, align 8
  store ptr %0, ptr %2, align 8
  %3 = load ptr, ptr %2, align 8
  %4 = getelementptr inbounds %"struct.std::_Vector_base.1", ptr %3, i32 0, i32 0
  %5 = getelementptr inbounds %"struct.std::_Vector_base<Function *, std::allocator<Function *>>::_Vector_impl_data", ptr %4, i32 0, i32 1
  %6 = load ptr, ptr %5, align 8
  %7 = getelementptr inbounds %"struct.std::_Vector_base.1", ptr %3, i32 0, i32 0
  %8 = getelementptr inbounds %"struct.std::_Vector_base<Function *, std::allocator<Function *>>::_Vector_impl_data", ptr %7, i32 0, i32 0
  %9 = load ptr, ptr %8, align 8
  %10 = ptrtoint ptr %6 to i64
  %11 = ptrtoint ptr %9 to i64
  %12 = sub i64 %10, %11
  %13 = sdiv exact i64 %12, 8
  ret i64 %13
}

; Function Attrs: mustprogress nounwind uwtable
define dso_local noundef ptr @_Z21get_fact_mgr_for_funcPK8Function(ptr noundef %0) #4 {
  %2 = alloca ptr, align 8
  %3 = alloca ptr, align 8
  %4 = alloca i64, align 8
  store ptr %0, ptr %3, align 8
  store i64 0, ptr %4, align 8
  br label %5

5:                                                ; preds = %20, %1
  %6 = load i64, ptr %4, align 8
  %7 = call noundef i64 @_ZNKSt6vectorIP8FunctionSaIS1_EE4sizeEv(ptr noundef nonnull align 8 dereferenceable(24) @_ZL8FuncList) #3
  %8 = icmp ult i64 %6, %7
  br i1 %8, label %9, label %23

9:                                                ; preds = %5
  %10 = load i64, ptr %4, align 8
  %11 = call noundef nonnull align 8 dereferenceable(8) ptr @_ZNSt6vectorIP8FunctionSaIS1_EEixEm(ptr noundef nonnull align 8 dereferenceable(24) @_ZL8FuncList, i64 noundef %10) #3
  %12 = load ptr, ptr %11, align 8
  %13 = load ptr, ptr %3, align 8
  %14 = icmp eq ptr %12, %13
  br i1 %14, label %15, label %19

15:                                               ; preds = %9
  %16 = load i64, ptr %4, align 8
  %17 = call noundef nonnull align 8 dereferenceable(8) ptr @_ZNSt6vectorIP7FactMgrSaIS1_EEixEm(ptr noundef nonnull align 8 dereferenceable(24) @_ZL6FMList, i64 noundef %16) #3
  %18 = load ptr, ptr %17, align 8
  store ptr %18, ptr %2, align 8
  br label %24

19:                                               ; preds = %9
  br label %20

20:                                               ; preds = %19
  %21 = load i64, ptr %4, align 8
  %22 = add i64 %21, 1
  store i64 %22, ptr %4, align 8
  br label %5, !llvm.loop !7

23:                                               ; preds = %5
  store ptr null, ptr %2, align 8
  br label %24

24:                                               ; preds = %23, %15
  %25 = load ptr, ptr %2, align 8
  ret ptr %25
}