; Function Attrs: mustprogress nofree norecurse nosync nounwind willreturn memory(read, inaccessiblemem: none) uwtable
define dso_local noundef ptr @_Z21get_fact_mgr_for_funcPK8Function(ptr noundef readnone %0) local_unnamed_addr #8 {
  %2 = load ptr, ptr getelementptr inbounds nuw (i8, ptr @_ZL8FuncList, i64 8), align 8
  %3 = load ptr, ptr @_ZL8FuncList, align 8
  %.not = icmp eq ptr %2, %3
  br i1 %.not, label %.loopexit, label %.lr.ph.preheader

.lr.ph.preheader:                                 ; preds = %1
  %4 = ptrtoint ptr %2 to i64
  %5 = ptrtoint ptr %3 to i64
  %6 = sub i64 %4, %5
  %7 = ashr exact i64 %6, 3
  %umax = tail call i64 @llvm.umax.i64(i64 %7, i64 1)
  br label %.lr.ph

.lr.ph:                                           ; preds = %.lr.ph.preheader, %15
  %.07 = phi i64 [ %16, %15 ], [ 0, %.lr.ph.preheader ]
  %8 = getelementptr inbounds ptr, ptr %3, i64 %.07
  %9 = load ptr, ptr %8, align 8
  %10 = icmp eq ptr %9, %0
  br i1 %10, label %11, label %15

11:                                               ; preds = %.lr.ph
  %12 = load ptr, ptr @_ZL6FMList, align 8
  %13 = getelementptr inbounds ptr, ptr %12, i64 %.07
  %14 = load ptr, ptr %13, align 8
  br label %.loopexit

15:                                               ; preds = %.lr.ph
  %16 = add nuw i64 %.07, 1
  %exitcond.not = icmp eq i64 %16, %umax
  br i1 %exitcond.not, label %.loopexit, label %.lr.ph, !llvm.loop !9

.loopexit:                                        ; preds = %15, %1, %11
  %.05 = phi ptr [ %14, %11 ], [ null, %1 ], [ null, %15 ]
  ret ptr %.05
}